 HawkNL

 Timestamp is 52367e05 (Mon Sep 16 11:41:57 2013)

 Preferred load address is 10000000

 Start         Length     Name                   Class
 0001:00000000 0000930eH .text                   CODE
 0002:00000000 00000178H .idata$5                DATA
 0002:00000178 00000004H .CRT$XCA                DATA
 0002:0000017c 00000004H .CRT$XCZ                DATA
 0002:00000180 00000004H .CRT$XIA                DATA
 0002:00000184 00000004H .CRT$XIAA               DATA
 0002:00000188 00000004H .CRT$XIZ                DATA
 0002:00000190 00000cc0H .rdata                  DATA
 0002:00000e50 00000004H .rdata$sxdata           DATA
 0002:00000e54 00000004H .rtc$IAA                DATA
 0002:00000e58 00000004H .rtc$IZZ                DATA
 0002:00000e5c 00000004H .rtc$TAA                DATA
 0002:00000e60 00000004H .rtc$TZZ                DATA
 0002:00000e68 00000064H .xdata$x                DATA
 0002:00000ecc 0000003cH .idata$2                DATA
 0002:00000f08 00000014H .idata$3                DATA
 0002:00000f1c 00000178H .idata$4                DATA
 0002:00001094 0000045aH .idata$6                DATA
 0002:000014f0 00000cc3H .edata                  DATA
 0003:00000000 00000830H .data                   DATA
 0003:00000830 000007f8H .bss                    DATA

  Address         Publics by Value              Rva+Base       Lib:Object

 0000:00000000       __except_list              00000000     <absolute>
 0000:00000001       ___safe_se_handler_count   00000001     <absolute>
 0000:00009876       __fltused                  00009876     <absolute>
 0000:00009876       __ldused                   00009876     <absolute>
 0000:00000000       ___ImageBase               10000000     <linker-defined>
 0001:00000000       _nlGetCRC16@8              10001000 f   crc.obj
 0001:00000040       _nlGetCRC32@8              10001040 f   crc.obj
 0001:00000080       _nlSetError                10001080 f   err.obj
 0001:000000b0       _nlGetError@0              100010b0 f   err.obj
 0001:00000100       _nlGetSystemErrorStr@4     10001100 f   errorstr.obj
 0001:00000470       _nlGetErrorStr@4           10001470 f   errorstr.obj
 0001:00000620       _nlGroupLock               10001620 f   group.obj
 0001:00000630       _nlGroupUnlock             10001630 f   group.obj
 0001:00000640       _nlGroupInit               10001640 f   group.obj
 0001:000006b0       _nlGroupGetFdset           100016b0 f   group.obj
 0001:000007b0       _nlGroupCreate@0           100017b0 f   group.obj
 0001:00000920       _nlGroupDestroy@4          10001920 f   group.obj
 0001:000009f0       _nlGroupAddSocket@8        100019f0 f   group.obj
 0001:00000bf0       _nlGroupGetSocketsINT      10001bf0 f   group.obj
 0001:00000c90       _nlGroupGetSockets@12      10001c90 f   group.obj
 0001:00000d00       _nlGroupDeleteSocket@8     10001d00 f   group.obj
 0001:00000e90       _nlGroupShutdown           10001e90 f   group.obj
 0001:00000ee0       _htCondInit@4              10001ee0 f   htcondition.obj
 0001:00000f40       _htCondWait@8              10001f40 f   htcondition.obj
 0001:00000fa0       _htCondSignal@4            10001fa0 f   htcondition.obj
 0001:00000fd0       _htCondBroadcast@4         10001fd0 f   htcondition.obj
 0001:00001010       _htCondDestroy@4           10002010 f   htcondition.obj
 0001:00001080       _htThreadCreate@12         10002080 f   hthread.obj
 0001:000010e0       _htThreadYield@0           100020e0 f   hthread.obj
 0001:000010f0       _htThreadJoin@8            100020f0 f   hthread.obj
 0001:00001130       _htThreadSleep@4           10002130 f   hthread.obj
 0001:00001140       _htMutexInit@4             10002140 f   htmutex.obj
 0001:00001190       _htMutexLock@4             10002190 f   htmutex.obj
 0001:000011f0       _htMutexUnlock@4           100021f0 f   htmutex.obj
 0001:00001250       _htMutexDestroy@4          10002250 f   htmutex.obj
 0001:00001330       _ipx_GetPort               10002330 f   ipx.obj
 0001:00001390       _ipx_Shutdown              10002390 f   ipx.obj
 0001:000015b0       _ipx_Open                  100025b0 f   ipx.obj
 0001:000015d0       _ipx_AddrToString          100025d0 f   ipx.obj
 0001:00001670       _ipx_StringToAddr          10002670 f   ipx.obj
 0001:000018a0       _ipx_GetAllLocalAddr       100028a0 f   ipx.obj
 0001:00001910       _ipx_SetLocalAddr          10002910 f   ipx.obj
 0001:00001960       _ipx_GetNameFromAddr       10002960 f   ipx.obj
 0001:00001970       _ipx_GetNameFromAddrAsync  10002970 f   ipx.obj
 0001:00001990       _ipx_GetAddrFromName       10002990 f   ipx.obj
 0001:00001a80       _ipx_GetAddrFromNameAsync  10002a80 f   ipx.obj
 0001:00001a90       _ipx_AddrCompare           10002a90 f   ipx.obj
 0001:00001ae0       _ipx_GetPortFromAddr       10002ae0 f   ipx.obj
 0001:00001b00       _ipx_SetAddrPort           10002b00 f   ipx.obj
 0001:00001b20       _ipx_Hint                  10002b20 f   ipx.obj
 0001:00001b60       _ipx_SetSocketOpt          10002b60 f   ipx.obj
 0001:00001bd0       _ipx_GetSocketOpt          10002bd0 f   ipx.obj
 0001:00001c10       _ipx_Init                  10002c10 f   ipx.obj
 0001:00001c70       _ipx_AcceptConnection      10002c70 f   ipx.obj
 0001:00001e40       _ipx_GetLocalAddr          10002e40 f   ipx.obj
 0001:00001fd0       _loopback_Init             10002fd0 f   loopback.obj
 0001:00001ff0       _loopback_Shutdown         10002ff0 f   loopback.obj
 0001:00002000       _loopback_Listen           10003000 f   loopback.obj
 0001:00002050       _loopback_Close            10003050 f   loopback.obj
 0001:00002260       _loopback_Write            10003260 f   loopback.obj
 0001:000024b0       _loopback_GetAllLocalAddr  100034b0 f   loopback.obj
 0001:00002500       _loopback_SetLocalAddr     10003500 f   loopback.obj
 0001:00002510       _loopback_AddrCompare      10003510 f   loopback.obj
 0001:00002530       _loopback_GetPortFromAddr  10003530 f   loopback.obj
 0001:00002540       _loopback_SetAddrPort      10003540 f   loopback.obj
 0001:00002550       _loopback_GetSystemError   10003550 f   loopback.obj
 0001:00002560       _loopback_PollGroup        10003560 f   loopback.obj
 0001:000028b0       _loopback_PollSocket       100038b0 f   loopback.obj
 0001:00002a00       _loopback_Hint             10003a00 f   loopback.obj
 0001:00002a30       _loopback_SetSocketOpt     10003a30 f   loopback.obj
 0001:00002a70       _loopback_GetSocketOpt     10003a70 f   loopback.obj
 0001:00002aa0       _loopback_Open             10003aa0 f   loopback.obj
 0001:00002c30       _loopback_Connect          10003c30 f   loopback.obj
 0001:00002e30       _loopback_Read             10003e30 f   loopback.obj
 0001:00002fb0       _loopback_AddrToString     10003fb0 f   loopback.obj
 0001:00002fe0       _loopback_StringToAddr     10003fe0 f   loopback.obj
 0001:00003060       _loopback_GetLocalAddr     10004060 f   loopback.obj
 0001:000030b0       _loopback_GetNameFromAddr  100040b0 f   loopback.obj
 0001:000030e0       _loopback_GetNameFromAddrAsync 100040e0 f   loopback.obj
 0001:00003100       _loopback_GetAddrFromName  10004100 f   loopback.obj
 0001:00003110       _loopback_GetAddrFromNameAsync 10004110 f   loopback.obj
 0001:00003120       _loopback_AcceptConnection 10004120 f   loopback.obj
 0001:00003490       _nlGetNewSocket            10004490 f   nl.obj
 0001:000036a0       _nlFreeSocket              100046a0 f   nl.obj
 0001:00003700       _nlIsValidSocket           10004700 f   nl.obj
 0001:00003740       _nlLockSocket              10004740 f   nl.obj
 0001:000037b0       _nlUnlockSocket            100047b0 f   nl.obj
 0001:00003a10       _nlShutdown@0              10004a10 f   nl.obj
 0001:00003b70       _nlListen@4                10004b70 f   nl.obj
 0001:00003bf0       _nlAcceptConnection@4      10004bf0 f   nl.obj
 0001:00003c80       _nlOpen@8                  10004c80 f   nl.obj
 0001:00003cc0       _nlConnect@8               10004cc0 f   nl.obj
 0001:00003d60       _nlClose@4                 10004d60 f   nl.obj
 0001:00003e10       _nlRead@12                 10004e10 f   nl.obj
 0001:00003ed0       _nlWrite@12                10004ed0 f   nl.obj
 0001:00004050       _nlPollGroup@20            10005050 f   nl.obj
 0001:000040b0       _nlPollSocket@12           100050b0 f   nl.obj
 0001:00004120       _nlHint@8                  10005120 f   nl.obj
 0001:00004160       _nlSetSocketOpt@12         10005160 f   nl.obj
 0001:000041c0       _nlGetSocketOpt@8          100051c0 f   nl.obj
 0001:00004220       _nlAddrToString@8          10005220 f   nl.obj
 0001:00004270       _nlStringToAddr@8          10005270 f   nl.obj
 0001:000042f0       _nlGetRemoteAddr@8         100052f0 f   nl.obj
 0001:000043e0       _nlSetRemoteAddr@8         100053e0 f   nl.obj
 0001:000044b0       _nlGetLocalAddr@8          100054b0 f   nl.obj
 0001:00004560       _nlGetAllLocalAddr@4       10005560 f   nl.obj
 0001:000045b0       _nlSetLocalAddr@4          100055b0 f   nl.obj
 0001:00004600       _nlGetNameFromAddr@8       10005600 f   nl.obj
 0001:00004650       _nlGetNameFromAddrAsync@8  10005650 f   nl.obj
 0001:000046a0       _nlGetAddrFromName@8       100056a0 f   nl.obj
 0001:00004720       _nlGetAddrFromNameAsync@8  10005720 f   nl.obj
 0001:000047a0       _nlAddrCompare@8           100057a0 f   nl.obj
 0001:000047f0       _nlGetPortFromAddr@4       100057f0 f   nl.obj
 0001:00004840       _nlSetAddrPort@8           10005840 f   nl.obj
 0001:00004890       _nlSelectNetwork@4         10005890 f   nl.obj
 0001:00004930       _nlGetString@4             10005930 f   nl.obj
 0001:00004a00       _nlGetInteger@4            10005a00 f   nl.obj
 0001:00004ac0       _nlClear@4                 10005ac0 f   nl.obj
 0001:00004ce0       _nlGetSystemError@0        10005ce0 f   nl.obj
 0001:00004d00       _nlEnable@4                10005d00 f   nl.obj
 0001:00004da0       _nlDisable@4               10005da0 f   nl.obj
 0001:00004e50       _nlGetBoolean@4            10005e50 f   nl.obj
 0001:00004ec0       _nlGetSocketStat@8         10005ec0 f   nl.obj
 0001:00005060       _nlClearSocketStat@8       10006060 f   nl.obj
 0001:000052b0       _nlSwaps@4                 100062b0 f   nl.obj
 0001:000052e0       _nlSwapl@4                 100062e0 f   nl.obj
 0001:00005320       _nlSwapf@4                 10006320 f   nl.obj
 0001:00005340       _nlSwapd@8                 10006340 f   nl.obj
 0001:00005390       _nlInit@0                  10006390 f   nl.obj
 0001:00005580       _nlTime@4                  10006580 f   nltime.obj
 0001:00005a80       _sock_Error                10006a80 f   sock.obj
 0001:00005ae0       _sock_SetBlocking          10006ae0 f   sock.obj
 0001:00005b20       _sock_SetBroadcast         10006b20 f   sock.obj
 0001:00005b60       _sock_SetReuseAddr         10006b60 f   sock.obj
 0001:00005e00       _sock_Init                 10006e00 f   sock.obj
 0001:00005ea0       _sock_Shutdown             10006ea0 f   sock.obj
 0001:00005ef0       _sock_Listen               10006ef0 f   sock.obj
 0001:000061c0       _sock_Close                100071c0 f   sock.obj
 0001:000067a0       _sock_Read                 100077a0 f   sock.obj
 0001:00006c00       _sock_Write                10007c00 f   sock.obj
 0001:00006e80       _sock_AddrToString         10007e80 f   sock.obj
 0001:00006f20       _sock_StringToAddr         10007f20 f   sock.obj
 0001:00007000       _sock_GetAllLocalAddr      10008000 f   sock.obj
 0001:000071b0       _sock_SetLocalAddr         100081b0 f   sock.obj
 0001:000071d0       _sock_GetAddrFromName      100081d0 f   sock.obj
 0001:00007330       _sock_GetAddrFromNameAsync 10008330 f   sock.obj
 0001:000073d0       _sock_AddrCompare          100083d0 f   sock.obj
 0001:00007400       _sock_GetPortFromAddr      10008400 f   sock.obj
 0001:00007420       _sock_SetAddrPort          10008420 f   sock.obj
 0001:00007440       _sock_GetSystemError       10008440 f   sock.obj
 0001:00007470       _sock_PollGroup            10008470 f   sock.obj
 0001:00007820       _sock_PollSocket           10008820 f   sock.obj
 0001:000079b0       _sock_Hint                 100089b0 f   sock.obj
 0001:00007a40       _sock_SetSocketOpt         10008a40 f   sock.obj
 0001:00007b40       _sock_GetSocketOpt         10008b40 f   sock.obj
 0001:00007be0       _sock_AcceptConnection     10008be0 f   sock.obj
 0001:00007dc0       _sock_OpenINT              10008dc0 f   sock.obj
 0001:00008030       _sock_Open                 10009030 f   sock.obj
 0001:00008510       _sock_Connect              10009510 f   sock.obj
 0001:000086b0       _sock_GetLocalAddr         100096b0 f   sock.obj
 0001:00008750       _sock_GetNameFromAddr      10009750 f   sock.obj
 0001:00008880       _sock_GetNameFromAddrAsync 10009880 f   sock.obj
 0001:00008934       _WSASetLastError@4         10009934 f   wsock32:WSOCK32.dll
 0001:0000893a       _WSAGetLastError@0         1000993a f   wsock32:WSOCK32.dll
 0001:00008940       _memset                    10009940 f   MSVCRT:MSVCR100.dll
 0001:00008946       _memcpy                    10009946 f   MSVCRT:MSVCR100.dll
 0001:0000894c       _printf                    1000994c f   MSVCRT:MSVCR100.dll
 0001:00008952       @__security_check_cookie@4 10009952 f   MSVCRT:secchk.obj
 0001:00008970       __alldiv                   10009970 f   MSVCRT:lldiv.obj
 0001:00008a20       __allmul                   10009a20 f   MSVCRT:llmul.obj
 0001:00008a60       __chkstk                   10009a60 f   MSVCRT:chkstk.obj
 0001:00008a60       __alloca_probe             10009a60     MSVCRT:chkstk.obj
 0001:00008ad9       __CRT_INIT@12              10009ad9 f   MSVCRT:crtdll.obj
 0001:00008df9       __DllMainCRTStartup@12     10009df9 f   MSVCRT:crtdll.obj
 0001:00008e1c       ___report_gsfailure        10009e1c f   MSVCRT:gs_report.obj
 0001:00008f22       ___clean_type_info_names   10009f22 f   MSVCRT:tncleanup.obj
 0001:00008f2e       __onexit                   10009f2e f   MSVCRT:atonexit.obj
 0001:00008fcf       _atexit                    10009fcf f   MSVCRT:atonexit.obj
 0001:00008fe6       __RTC_Initialize           10009fe6 f   MSVCRT:_initsect_.obj
 0001:0000900c       __RTC_Terminate            1000a00c f   MSVCRT:_initsect_.obj
 0001:00009040       __ValidateImageBase        1000a040 f   MSVCRT:pesect.obj
 0001:00009080       __FindPESection            1000a080 f   MSVCRT:pesect.obj
 0001:000090d0       __IsNonwritableInCurrentImage 1000a0d0 f   MSVCRT:pesect.obj
 0001:0000918c       __initterm                 1000a18c f   MSVCRT:MSVCR100.dll
 0001:00009192       __initterm_e               1000a192 f   MSVCRT:MSVCR100.dll
 0001:00009198       __amsg_exit                1000a198 f   MSVCRT:MSVCR100.dll
 0001:0000919e       ___CppXcptFilter           1000a19e f   MSVCRT:MSVCR100.dll
 0001:000091a4       _DllMain@12                1000a1a4 f   MSVCRT:dllmain.obj
 0001:000091d0       __SEH_prolog4              1000a1d0 f   MSVCRT:sehprolg4.obj
 0001:00009215       __SEH_epilog4              1000a215 f   MSVCRT:sehprolg4.obj
 0001:00009229       __except_handler4          1000a229 f   MSVCRT:chandler4gs.obj
 0001:0000924e       ___security_init_cookie    1000a24e f   MSVCRT:gs_support.obj
 0001:000092ea       __crt_debugger_hook        1000a2ea f   MSVCRT:MSVCR100.dll
 0001:000092f0       ___clean_type_info_names_internal 1000a2f0 f   MSVCRT:MSVCR100.dll
 0001:000092f6       __unlock                   1000a2f6 f   MSVCRT:MSVCR100.dll
 0001:000092fc       ___dllonexit               1000a2fc f   MSVCRT:MSVCR100.dll
 0001:00009302       __lock                     1000a302 f   MSVCRT:MSVCR100.dll
 0001:00009308       __except_handler4_common   1000a308 f   MSVCRT:MSVCR100.dll
 0002:00000000       __imp__QueryPerformanceCounter@4 1000b000     kernel32:KERNEL32.dll
 0002:00000004       __imp__GetCurrentProcessId@0 1000b004     kernel32:KERNEL32.dll
 0002:00000008       __imp__DisableThreadLibraryCalls@4 1000b008     kernel32:KERNEL32.dll
 0002:0000000c       __imp__IsDebuggerPresent@0 1000b00c     kernel32:KERNEL32.dll
 0002:00000010       __imp__SetUnhandledExceptionFilter@4 1000b010     kernel32:KERNEL32.dll
 0002:00000014       __imp__UnhandledExceptionFilter@4 1000b014     kernel32:KERNEL32.dll
 0002:00000018       __imp__GetCurrentProcess@0 1000b018     kernel32:KERNEL32.dll
 0002:0000001c       __imp__TerminateProcess@8  1000b01c     kernel32:KERNEL32.dll
 0002:00000020       __imp__InterlockedCompareExchange@12 1000b020     kernel32:KERNEL32.dll
 0002:00000024       __imp__InterlockedExchange@8 1000b024     kernel32:KERNEL32.dll
 0002:00000028       __imp__DecodePointer@4     1000b028     kernel32:KERNEL32.dll
 0002:0000002c       __imp__EncodePointer@4     1000b02c     kernel32:KERNEL32.dll
 0002:00000030       __imp__GetSystemTimeAsFileTime@4 1000b030     kernel32:KERNEL32.dll
 0002:00000034       __imp__QueryPerformanceFrequency@4 1000b034     kernel32:KERNEL32.dll
 0002:00000038       __imp__GetTickCount@0      1000b038     kernel32:KERNEL32.dll
 0002:0000003c       __imp__DeleteCriticalSection@4 1000b03c     kernel32:KERNEL32.dll
 0002:00000040       __imp__GetCurrentThreadId@0 1000b040     kernel32:KERNEL32.dll
 0002:00000044       __imp__EnterCriticalSection@4 1000b044     kernel32:KERNEL32.dll
 0002:00000048       __imp__LeaveCriticalSection@4 1000b048     kernel32:KERNEL32.dll
 0002:0000004c       __imp__InitializeCriticalSection@4 1000b04c     kernel32:KERNEL32.dll
 0002:00000050       __imp__WaitForSingleObject@8 1000b050     kernel32:KERNEL32.dll
 0002:00000054       __imp__GetExitCodeThread@8 1000b054     kernel32:KERNEL32.dll
 0002:00000058       __imp__Sleep@4             1000b058     kernel32:KERNEL32.dll
 0002:0000005c       __imp__SetLastError@4      1000b05c     kernel32:KERNEL32.dll
 0002:00000060       __imp__CloseHandle@4       1000b060     kernel32:KERNEL32.dll
 0002:00000064       __imp__PulseEvent@4        1000b064     kernel32:KERNEL32.dll
 0002:00000068       __imp__WaitForMultipleObjects@16 1000b068     kernel32:KERNEL32.dll
 0002:0000006c       __imp__TlsSetValue@8       1000b06c     kernel32:KERNEL32.dll
 0002:00000070       __imp__TlsAlloc@0          1000b070     kernel32:KERNEL32.dll
 0002:00000074       __imp__TlsGetValue@4       1000b074     kernel32:KERNEL32.dll
 0002:00000078       __imp__FormatMessageA@28   1000b078     kernel32:KERNEL32.dll
 0002:0000007c       __imp__CreateEventA@16     1000b07c     kernel32:KERNEL32.dll
 0002:00000080       \177KERNEL32_NULL_THUNK_DATA 1000b080     kernel32:KERNEL32.dll
 0002:00000084       __imp__strncat             1000b084     MSVCRT:MSVCR100.dll
 0002:00000088       __imp___onexit             1000b088     MSVCRT:MSVCR100.dll
 0002:0000008c       __imp___lock               1000b08c     MSVCRT:MSVCR100.dll
 0002:00000090       __imp____dllonexit         1000b090     MSVCRT:MSVCR100.dll
 0002:00000094       __imp___unlock             1000b094     MSVCRT:MSVCR100.dll
 0002:00000098       __imp____clean_type_info_names_internal 1000b098     MSVCRT:MSVCR100.dll
 0002:0000009c       __imp___crt_debugger_hook  1000b09c     MSVCRT:MSVCR100.dll
 0002:000000a0       __imp____CppXcptFilter     1000b0a0     MSVCRT:MSVCR100.dll
 0002:000000a4       __imp___amsg_exit          1000b0a4     MSVCRT:MSVCR100.dll
 0002:000000a8       __imp___initterm_e         1000b0a8     MSVCRT:MSVCR100.dll
 0002:000000ac       __imp___initterm           1000b0ac     MSVCRT:MSVCR100.dll
 0002:000000b0       __imp___encoded_null       1000b0b0     MSVCRT:MSVCR100.dll
 0002:000000b4       __imp___malloc_crt         1000b0b4     MSVCRT:MSVCR100.dll
 0002:000000b8       __imp___snprintf           1000b0b8     MSVCRT:MSVCR100.dll
 0002:000000bc       __imp__strcspn             1000b0bc     MSVCRT:MSVCR100.dll
 0002:000000c0       __imp__malloc              1000b0c0     MSVCRT:MSVCR100.dll
 0002:000000c4       __imp__memset              1000b0c4     MSVCRT:MSVCR100.dll
 0002:000000c8       __imp__memcpy              1000b0c8     MSVCRT:MSVCR100.dll
 0002:000000cc       __imp__free                1000b0cc     MSVCRT:MSVCR100.dll
 0002:000000d0       __imp__realloc             1000b0d0     MSVCRT:MSVCR100.dll
 0002:000000d4       __imp__printf              1000b0d4     MSVCRT:MSVCR100.dll
 0002:000000d8       __imp___beginthreadex      1000b0d8     MSVCRT:MSVCR100.dll
 0002:000000dc       __imp__sprintf             1000b0dc     MSVCRT:MSVCR100.dll
 0002:000000e0       __imp__sscanf              1000b0e0     MSVCRT:MSVCR100.dll
 0002:000000e4       __imp___errno              1000b0e4     MSVCRT:MSVCR100.dll
 0002:000000e8       __imp__atoi                1000b0e8     MSVCRT:MSVCR100.dll
 0002:000000ec       __imp__strchr              1000b0ec     MSVCRT:MSVCR100.dll
 0002:000000f0       __imp___time64             1000b0f0     MSVCRT:MSVCR100.dll
 0002:000000f4       __imp__strrchr             1000b0f4     MSVCRT:MSVCR100.dll
 0002:000000f8       __imp__memmove             1000b0f8     MSVCRT:MSVCR100.dll
 0002:000000fc       __imp__strncpy             1000b0fc     MSVCRT:MSVCR100.dll
 0002:00000100       __imp___except_handler4_common 1000b100     MSVCRT:MSVCR100.dll
 0002:00000104       \177MSVCR100_NULL_THUNK_DATA 1000b104     MSVCRT:MSVCR100.dll
 0002:00000108       __imp__WSAStartup@8        1000b108     wsock32:WSOCK32.dll
 0002:0000010c       __imp__accept@12           1000b10c     wsock32:WSOCK32.dll
 0002:00000110       __imp__send@16             1000b110     wsock32:WSOCK32.dll
 0002:00000114       __imp__ioctlsocket@12      1000b114     wsock32:WSOCK32.dll
 0002:00000118       __imp__setsockopt@20       1000b118     wsock32:WSOCK32.dll
 0002:0000011c       __imp__htonl@4             1000b11c     wsock32:WSOCK32.dll
 0002:00000120       __imp__gethostbyname@4     1000b120     wsock32:WSOCK32.dll
 0002:00000124       __imp__gethostname@8       1000b124     wsock32:WSOCK32.dll
 0002:00000128       __imp__listen@8            1000b128     wsock32:WSOCK32.dll
 0002:0000012c       __imp__shutdown@8          1000b12c     wsock32:WSOCK32.dll
 0002:00000130       __imp__select@20           1000b130     wsock32:WSOCK32.dll
 0002:00000134       __imp__recv@16             1000b134     wsock32:WSOCK32.dll
 0002:00000138       __imp__getsockopt@20       1000b138     wsock32:WSOCK32.dll
 0002:0000013c       __imp__ntohl@4             1000b13c     wsock32:WSOCK32.dll
 0002:00000140       __imp__gethostbyaddr@12    1000b140     wsock32:WSOCK32.dll
 0002:00000144       __imp__recvfrom@24         1000b144     wsock32:WSOCK32.dll
 0002:00000148       __imp__htons@4             1000b148     wsock32:WSOCK32.dll
 0002:0000014c       __imp__sendto@24           1000b14c     wsock32:WSOCK32.dll
 0002:00000150       __imp__connect@12          1000b150     wsock32:WSOCK32.dll
 0002:00000154       __imp__WSACleanup@0        1000b154     wsock32:WSOCK32.dll
 0002:00000158       __imp__ntohs@4             1000b158     wsock32:WSOCK32.dll
 0002:0000015c       __imp__socket@12           1000b15c     wsock32:WSOCK32.dll
 0002:00000160       __imp__bind@12             1000b160     wsock32:WSOCK32.dll
 0002:00000164       __imp__closesocket@4       1000b164     wsock32:WSOCK32.dll
 0002:00000168       __imp__getsockname@12      1000b168     wsock32:WSOCK32.dll
 0002:0000016c       __imp__WSAGetLastError@0   1000b16c     wsock32:WSOCK32.dll
 0002:00000170       __imp__WSASetLastError@4   1000b170     wsock32:WSOCK32.dll
 0002:00000174       \177WSOCK32_NULL_THUNK_DATA 1000b174     wsock32:WSOCK32.dll
 0002:00000178       ___xc_a                    1000b178     MSVCRT:cinitexe.obj
 0002:0000017c       ___xc_z                    1000b17c     MSVCRT:cinitexe.obj
 0002:00000180       ___xi_a                    1000b180     MSVCRT:cinitexe.obj
 0002:00000188       ___xi_z                    1000b188     MSVCRT:cinitexe.obj
 0002:00000190       ??_C@_0DD@LJAFHHJP@Non?9authoritive?3?5host?5not?5found?5@ 1000b190     errorstr.obj
 0002:000001c4       ??_C@_0CN@DAPLJKLH@Non?9recoverable?3?5refused?5or?5not?5@ 1000b1c4     errorstr.obj
 0002:000001f4       ??_C@_0CF@CCFBKIPB@Valid?5name?0?5no?5data?5record?5for?5t@ 1000b1f4     errorstr.obj
 0002:0000021c       ??_C@_0BN@NLPEDICB@Authoritive?3?5Host?5not?5found?4?$AA@ 1000b21c     errorstr.obj
 0002:0000023c       ??_C@_0CD@OCFFMKGB@Too?5many?5levels?5of?5remote?5in?5pat@ 1000b23c     errorstr.obj
 0002:00000260       ??_C@_0BH@MDHNHJHB@Stale?5NFS?5file?5handle?4?$AA@ 1000b260     errorstr.obj
 0002:00000278       ??_C@_0BF@CBGCOCDE@Disc?5quota?5exceeded?4?$AA@ 1000b278     errorstr.obj
 0002:00000290       ??_C@_0BA@MDOAAOPE@Too?5many?5users?4?$AA@ 1000b290     errorstr.obj
 0002:000002a0       ??_C@_0CD@PKPMNMKO@Too?5many?5levels?5of?5symbolic?5link@ 1000b2a0     errorstr.obj
 0002:000002c4       ??_C@_0CD@GJBNFEJN@Too?5many?5references?$DL?5can?8t?5splic@ 1000b2c4     errorstr.obj
 0002:000002e8       ??_C@_0BP@EJPELDFL@Protocol?5family?5not?5supported?4?$AA@ 1000b2e8     errorstr.obj
 0002:00000308       ??_C@_0BF@NFGIPFNA@Bad?5protocol?5option?4?$AA@ 1000b308     errorstr.obj
 0002:00000320       ??_C@_0EE@JEBBOBBG@A?5non?9blocking?5connect?5call?5is?5i@ 1000b320     errorstr.obj
 0002:00000368       ??_C@_0EO@FIIKOGOC@The?5message?5was?5too?5large?5to?5fit@ 1000b368     errorstr.obj
 0002:000003b8       ??_C@_0BL@FLKHJCLG@Socket?5has?5been?5shut?5down?4?$AA@ 1000b3b8     errorstr.obj
 0002:000003d4       ??_C@_0CC@GKIJMEBA@Operation?5not?5supported?5on?5socke@ 1000b3d4     errorstr.obj
 0002:000003f8       ??_C@_0DN@JMGDIPMC@Connection?5has?5been?5broken?5due?5t@ 1000b3f8     errorstr.obj
 0002:00000438       ??_C@_0BN@NKJOIDAP@Socket?5is?5already?5connected?4?$AA@ 1000b438     errorstr.obj
 0002:00000458       ??_C@_0CB@GJFLGDGB@Destination?5address?5is?5required?4@ 1000b458     errorstr.obj
 0002:0000047c       ??_C@_0CI@HIEJKKAC@A?5blocking?5sockets?5call?5is?5in?5pr@ 1000b47c     errorstr.obj
 0002:000004a4       ??_C@_0BH@IONNFELH@Address?5not?5available?4?$AA@ 1000b4a4     errorstr.obj
 0002:000004bc       ??_C@_0BC@HJBJJOMN@Host?5unreachable?4?$AA@ 1000b4bc     errorstr.obj
 0002:000004d0       ??_C@_0BF@NGBINEJP@Network?5unreachable?4?$AA@ 1000b4d0     errorstr.obj
 0002:000004e8       ??_C@_0O@NFGFDNC@Host?5is?5down?4?$AA@ 1000b4e8     errorstr.obj
 0002:000004f8       ??_C@_0BI@PMHKFIMA@Connection?5was?5refused?4?$AA@ 1000b4f8     errorstr.obj
 0002:00000510       ??_C@_0P@BMBGBLAG@Not?5connected?4?$AA@ 1000b510     errorstr.obj
 0002:00000520       ??_C@_0BC@PIBEPGML@Connection?5reset?4?$AA@ 1000b520     errorstr.obj
 0002:00000534       ??_C@_0BE@FFDJKHGA@Connection?5aborted?4?$AA@ 1000b534     errorstr.obj
 0002:00000548       ??_C@_0BI@LBNMNFCL@Address?5already?5in?5use?4?$AA@ 1000b548     errorstr.obj
 0002:00000560       ??_C@_0CB@CLOEJMNH@Non?9blocking?5socket?5would?5block?4@ 1000b560     errorstr.obj
 0002:00000584       ??_C@_0BM@GNBDBNDJ@Descriptor?5is?5not?5a?5socket?4?$AA@ 1000b584     errorstr.obj
 0002:000005a0       ??_C@_0CO@DHMCPLEK@Socket?5type?5not?5supported?5for?5ad@ 1000b5a0     errorstr.obj
 0002:000005d0       ??_C@_0CF@LLABJPEO@Protocol?5wrong?5type?5for?5this?5soc@ 1000b5d0     errorstr.obj
 0002:000005f8       ??_C@_0CC@FPMGOJLC@Specified?5protocol?5not?5supported@ 1000b5f8     errorstr.obj
 0002:0000061c       ??_C@_0BL@HNDJEPNA@No?5buffer?5space?5available?4?$AA@ 1000b61c     errorstr.obj
 0002:00000638       ??_C@_0BO@LLLLNADA@Address?5family?5not?5supported?4?$AA@ 1000b638     errorstr.obj
 0002:00000658       ??_C@_0BK@IFHBBNDC@Network?5subsystem?5failed?4?$AA@ 1000b658     errorstr.obj
 0002:00000674       ??_C@_0CE@FFAIKDAG@Permission?5to?5access?5socket?5deni@ 1000b674     errorstr.obj
 0002:00000698       ??_C@_0CC@GABEAMBB@App?5version?5not?5supported?5by?5DLL@ 1000b698     errorstr.obj
 0002:000006bc       ??_C@_0BF@KPFLNEIL@Too?5many?5open?5files?4?$AA@ 1000b6bc     errorstr.obj
 0002:000006d4       ??_C@_0CD@BLJJIJHC@The?5namelen?5argument?5is?5incorrec@ 1000b6d4     errorstr.obj
 0002:000006f8       ??_C@_0BF@NGENPAB@Bad?5file?5descriptor?4?$AA@ 1000b6f8     errorstr.obj
 0002:00000710       ??_C@_0BL@MNFCMOJL@Interrupted?5function?5call?4?$AA@ 1000b710     errorstr.obj
 0002:0000072c       ??_C@_0BE@LPAHEAJN@Too?5many?5processes?4?$AA@ 1000b72c     errorstr.obj
 0002:00000740       ??_C@_0BJ@BPHGPFEA@WinSock?5not?5initialized?4?$AA@ 1000b740     errorstr.obj
 0002:0000075c       ??_C@_0CH@PGFFDJLL@WinSock?5not?5present?5or?5not?5respo@ 1000b75c     errorstr.obj
 0002:00000784       ??_C@_0CC@EIMIIPLB@Version?5of?5WinSock?5not?5supported@ 1000b784     errorstr.obj
 0002:000007a8       ??_C@_09MFOLKCNJ@No?5error?4?$AA@ 1000b7a8     errorstr.obj
 0002:000007b4       ??_C@_0BE@BNGJKJML@File?5name?5too?5long?4?$AA@ 1000b7b4     errorstr.obj
 0002:000007c8       ??_C@_0BF@MFOECPMM@Directory?5not?5empty?4?$AA@ 1000b7c8     errorstr.obj
 0002:000007e0       ??_C@_0BG@FJOOPMBM@Connection?5timed?5out?4?$AA@ 1000b7e0     errorstr.obj
 0002:000007f8       ??_C@_0BI@BFDMEOBC@Undefined?5HawkNL?5error?4?$AA@ 1000b7f8     errorstr.obj
 0002:00000810       ??_C@_0CB@NOGOGHML@The?5socket?5is?5already?5connected?4@ 1000b810     errorstr.obj
 0002:00000834       ??_C@_0DM@NEHOMMI@The?5string?5could?5cause?5a?5buffer?5@ 1000b834     errorstr.obj
 0002:00000870       ??_C@_0CH@PBKABNPJ@The?5socket?5was?5not?5found?5in?5the?5@ 1000b870     errorstr.obj
 0002:00000898       ??_C@_0BI@POACMFOD@The?5function?5timed?5out?4?$AA@ 1000b898     errorstr.obj
 0002:000008b0       ??_C@_0CL@BHOAFJFJ@Thread?5local?5storage?5could?5not?5b@ 1000b8b0     errorstr.obj
 0002:000008dc       ??_C@_0CO@NDOFBLNG@The?5NL_RELIABLE_PACKET?5stream?5is@ 1000b8dc     errorstr.obj
 0002:0000090c       ??_C@_0CE@BFNJECCP@A?5network?5type?5is?5already?5select@ 1000b90c     errorstr.obj
 0002:00000930       ??_C@_0CM@PBKOJOHB@A?5non?9blocking?5connection?5is?5sti@ 1000b930     errorstr.obj
 0002:0000095c       ??_C@_0BD@EDAPFLGG@Wrong?5socket?5type?4?$AA@ 1000b95c     errorstr.obj
 0002:00000970       ??_C@_0BJ@GCOHPABO@The?5packet?5is?5too?5large?4?$AA@ 1000b970     errorstr.obj
 0002:0000098c       ??_C@_0BJ@OEJIPFMG@The?5buffer?5is?5too?5small?4?$AA@ 1000b98c     errorstr.obj
 0002:000009a8       ??_C@_0BD@MNBHLHHF@The?5group?5is?5full?4?$AA@ 1000b9a8     errorstr.obj
 0002:000009bc       ??_C@_0P@HIANAFHJ@Out?5of?5groups?4?$AA@ 1000b9bc     errorstr.obj
 0002:000009cc       ??_C@_0BI@LIGIPBPP@The?5group?5is?5not?5valid?4?$AA@ 1000b9cc     errorstr.obj
 0002:000009e4       ??_C@_0CJ@CJCANHD@A?5NULL?5pointer?5was?5passed?5to?5a?5f@ 1000b9e4     errorstr.obj
 0002:00000a10       ??_C@_0BB@EJDCOIFL@TCP?5message?5end?4?$AA@ 1000ba10     errorstr.obj
 0002:00000a24       ??_C@_0CD@COAPLDHK@The?5address?5or?5port?5are?5not?5vali@ 1000ba24     errorstr.obj
 0002:00000a48       ??_C@_0CC@PBGLNNNJ@No?5pending?5connections?5to?5accept@ 1000ba48     errorstr.obj
 0002:00000a6c       ??_C@_0BE@PAAMHJLG@Connection?5refused?4?$AA@ 1000ba6c     errorstr.obj
 0002:00000a80       ??_C@_0CD@CLFPMAJL@Socket?5has?5not?5been?5set?5to?5liste@ 1000ba80     errorstr.obj
 0002:00000aa4       ??_C@_0CA@LKJKLGJF@Connection?5error?3?5Close?5socket?4?$AA@ 1000baa4     errorstr.obj
 0002:00000ac4       ??_C@_0DA@DIMODMKK@A?5system?5error?5occurred?0?5call?5nl@ 1000bac4     errorstr.obj
 0002:00000af4       ??_C@_0BP@IBPCHNK@Network?5type?5is?5not?5available?4?$AA@ 1000baf4     errorstr.obj
 0002:00000b14       ??_C@_0BK@LPEJLNKM@Port?5could?5not?5be?5opened?4?$AA@ 1000bb14     errorstr.obj
 0002:00000b30       ??_C@_0BF@KGLCGCPD@Socket?5is?5not?5valid?4?$AA@ 1000bb30     errorstr.obj
 0002:00000b48       ??_C@_0BA@EJGNMEL@Invalid?5NLenum?4?$AA@ 1000bb48     errorstr.obj
 0002:00000b58       ??_C@_0P@ILLCNIIE@Out?5of?5memory?4?$AA@ 1000bb58     errorstr.obj
 0002:00000b68       ??_C@_0BO@CAMOKBML@No?5network?5was?5found?5on?5init?4?$AA@ 1000bb68     errorstr.obj
 0002:00000b88       ??_C@_0BB@PFFMFPCO@No?5HawkNL?5error?4?$AA@ 1000bb88     errorstr.obj
 0002:00000ba0       ??_C@_0EJ@IELGLEPG@nlGroupAddSocket?5Error?5sockets?$FLi@ 1000bba0     group.obj
 0002:00000bec       ??_C@_0DL@IHFFCKAD@nlGroupAddSocket?5Error?5oldmax?5?$DN?5@ 1000bbec     group.obj
 0002:00000c28       ??_C@_0BG@LEKOMHFM@HawkNL?5connection?5OK?4?$AA@ 1000bc28     ipx.obj
 0002:00000c40       ??_C@_0BL@IPDIBAHI@HawkNL?5request?5connection?4?$AA@ 1000bc40     ipx.obj
 0002:00000c5c       ??_C@_0CN@BNIHJBJA@?$CF02x?$CF02x?$CF02x?$CF02x?3?$CF02x?$CF02x?$CF02x?$CF02@ 1000bc5c     ipx.obj
 0002:00000c8c       ??_C@_02DPKJAMEF@?$CFd?$AA@ 1000bc8c     ipx.obj
 0002:00000c90       ??_C@_02NJNOFBBI@?$CFx?$AA@ 1000bc90     ipx.obj
 0002:00000c94       ??_C@_05HKPGCKL@?$CFs?3?$CFd?$AA@ 1000bc94     ipx.obj
 0002:00000c9c       ??_C@_0P@PCOJFODG@00000000?3?$CFs?3?$CFd?$AA@ 1000bc9c     ipx.obj
 0002:00000cac       ??_C@_0N@LKKCLJFJ@127?40?40?41?3?$CFu?$AA@ 1000bcac     loopback.obj
 0002:00000cbc       ??_C@_05FEHGEBLL@?$CFs?3?$CFu?$AA@ 1000bcbc     loopback.obj
 0002:00000cc4       ??_C@_09IPAEKDAI@localhost?$AA@ 1000bcc4     loopback.obj
 0002:00000cd0       ??_C@_06EMLMFCPD@NL_IPX?$AA@ 1000bcd0     nl.obj
 0002:00000cd8       ??_C@_0DL@IPPGJIBA@NL_RELIABLE?5NL_UNRELIABLE?5NL_REL@ 1000bcd8     nl.obj
 0002:00000d14       ??_C@_0N@KCBIMOPP@NL_LOOP_BACK?$AA@ 1000bd14     nl.obj
 0002:00000d28       ??_C@_0FJ@KGBPCPAO@NL_RELIABLE?5NL_UNRELIABLE?5NL_REL@ 1000bd28     nl.obj
 0002:00000d84       ??_C@_05LAPCHEOH@NL_IP?$AA@ 1000bd84     nl.obj
 0002:00000d8c       ??_C@_01CLKCMJKC@?5?$AA@   1000bd8c     nl.obj
 0002:00000d90       ??_C@_0BC@PEJELHNH@HawkNL?51?47?5beta?51?$AA@ 1000bd90     nl.obj
 0002:00000da4       ??_C@_0BD@GANMBMGA@?$CFlu?4?$CFlu?4?$CFlu?4?$CFlu?3?$CFu?$AA@ 1000bda4     sock.obj
 0002:00000db8       ??_C@_0BA@ICEFHMBO@?$CFlu?4?$CFlu?4?$CFlu?4?$CFlu?$AA@ 1000bdb8     sock.obj
 0002:00000dc8       ??_C@_0BE@MGNKIAI@?$CFlu?4?$CFlu?4?$CFlu?4?$CFlu?3?$CFlu?$AA@ 1000bdc8     sock.obj
 0002:00000ddc       ??_C@_03FNNLGIME@?$CFhu?$AA@ 1000bddc     sock.obj
 0002:00000de0       ??_C@_01JLIPDDHJ@?3?$AA@   1000bde0     sock.obj
 0002:00000de4       ??_C@_0M@LOEHLCJD@Bad?5address?$AA@ 1000bde4     sock.obj
 0002:00000df0       ??_C@_06BKFBKBNF@?$CFs?3?$CFhu?$AA@ 1000bdf0     sock.obj
 0002:00000df8       __pDefaultRawDllMain       1000bdf8     MSVCRT:crtdll.obj
 0002:00000df8       __pRawDllMain              1000bdf8     MSVCRT:crtdll.obj
 0002:00000e08       __load_config_used         1000be08     MSVCRT:loadcfg.obj
 0002:00000e50       ___safe_se_handler_table   1000be50     <linker-defined>
 0002:00000e54       ___rtc_iaa                 1000be54     MSVCRT:_initsect_.obj
 0002:00000e58       ___rtc_izz                 1000be58     MSVCRT:_initsect_.obj
 0002:00000e5c       ___rtc_taa                 1000be5c     MSVCRT:_initsect_.obj
 0002:00000e60       ___rtc_tzz                 1000be60     MSVCRT:_initsect_.obj
 0002:00000ecc       __IMPORT_DESCRIPTOR_WSOCK32 1000becc     wsock32:WSOCK32.dll
 0002:00000ee0       __IMPORT_DESCRIPTOR_KERNEL32 1000bee0     kernel32:KERNEL32.dll
 0002:00000ef4       __IMPORT_DESCRIPTOR_MSVCR100 1000bef4     MSVCRT:MSVCR100.dll
 0002:00000f08       __NULL_IMPORT_DESCRIPTOR   1000bf08     wsock32:WSOCK32.dll
 0003:00000608       _nlState                   1000e608     nl.obj
 0003:00000808       _backlog                   1000e808     sock.obj
 0003:00000814       ___security_cookie         1000e814     MSVCRT:gs_cookie.obj
 0003:00000818       ___security_cookie_complement 1000e818     MSVCRT:gs_cookie.obj
 0003:00000820       ___native_dllmain_reason   1000e820     MSVCRT:natstart.obj
 0003:00000824       ___native_vcclrit_reason   1000e824     MSVCRT:natstart.obj
 0003:00000c78       _nlSockets                 1000ec78     nl.obj
 0003:00000cc8       _reuseaddress              1000ecc8     sock.obj
 0003:0000100c       ?__type_info_root_node@@3U__type_info_node@@A 1000f00c     MSVCRT:tncleanup.obj
 0003:00001014       ___native_startup_state    1000f014     <common>
 0003:00001018       ___native_startup_lock     1000f018     <common>
 0003:0000101c       ___onexitend               1000f01c     <common>
 0003:00001020       ___onexitbegin             1000f020     <common>
 0003:00001024       ___dyn_tls_init_callback   1000f024     <common>

 entry point at        0001:00008df9

 Static symbols

 0001:00001060       _threadfunc@4              10002060 f   hthread.obj
 0001:00001290       _ipx_GetHostAddress        10002290 f   ipx.obj
 0001:000013a0       _ipx_AcceptIPX             100023a0 f   ipx.obj
 0001:00001eb0       _loopback_getNextPort      10002eb0 f   loopback.obj
 0001:00001ef0       _loopback_ScanPort         10002ef0 f   loopback.obj
 0001:00001f90       _loopback_TryPort          10002f90 f   loopback.obj
 0001:00002100       _loopback_WritePacket      10003100 f   loopback.obj
 0001:00003410       _isSafeString              10004410 f   nl.obj
 0001:00003440       _safecat                   10004440 f   nl.obj
 0001:00003640       _nlReturnSocket            10004640 f   nl.obj
 0001:000037f0       _nlUpdateStats             100047f0 f   nl.obj
 0001:00003930       _nlUpdateInStats           10004930 f   nl.obj
 0001:00003970       _nlUpdateOutStats          10004970 f   nl.obj
 0001:000039b0       _nlUpdateSocketInStats     100049b0 f   nl.obj
 0001:000039e0       _nlUpdateSocketOutStats    100049e0 f   nl.obj
 0001:000054b0       _myftime                   100064b0 f   nltime.obj
 0001:00005710       _sock_getNextPort          10006710 f   sock.obj
 0001:00005750       _sock_bind                 10006750 f   sock.obj
 0001:000057b0       _sock_connect              100067b0 f   sock.obj
 0001:00005820       _sock_WritePacketCheckPending 10006820 f   sock.obj
 0001:00005890       _sock_rpThread             10006890 f   sock.obj
 0001:000059f0       _sock_AddSocket            100069f0 f   sock.obj
 0001:00005a50       _sock_DeleteSocket         10006a50 f   sock.obj
 0001:00005bb0       _sock_SetTCPNoDelay        10006bb0 f   sock.obj
 0001:00005c10       _sock_SetMulticastTTL      10006c10 f   sock.obj
 0001:00005c90       _sock_SetSocketOptions     10006c90 f   sock.obj
 0001:00005d20       _sock_GetHostAddress       10006d20 f   sock.obj
 0001:00005da0       _sock_GetPort              10006da0 f   sock.obj
 0001:00005fb0       _sock_AcceptUDP            10006fb0 f   sock.obj
 0001:00006290       _sock_ReadPacket           10007290 f   sock.obj
 0001:000069f0       _allocateBuffer            100079f0 f   sock.obj
 0001:00006a80       _sock_WritePacket          10007a80 f   sock.obj
 0001:000072f0       _sock_GetAddrFromNameAsyncInt 100082f0 f   sock.obj
 0001:00008050       _sock_ConnectUDP           10009050 f   sock.obj
 0001:00008350       _sock_ConnectUDPAsynchInt  10009350 f   sock.obj
 0001:00008380       _sock_ConnectUDPAsynch     10009380 f   sock.obj
 0001:000083e0       _sock_ConnectMulticast     100093e0 f   sock.obj
 0001:00008850       _sock_GetNameFromAddrAsyncInt 10009850 f   sock.obj
 0001:00008a8b       _pre_c_init                10009a8b f   MSVCRT:crtdll.obj
 0001:00008ce3       ___DllMainCRTStartup       10009ce3 f   MSVCRT:crtdll.obj
